; Function Attrs: nounwind sspstrong uwtable
define internal i64 @argf_binmode_m(i64 noundef %0) #0 {
  %2 = inttoptr i64 %0 to ptr
  %3 = getelementptr inbounds nuw i8, ptr %2, i64 32
  %4 = load ptr, ptr %3, align 8, !tbaa !59
  %5 = getelementptr inbounds nuw i8, ptr %4, i64 82
  store i8 1, ptr %5, align 2, !tbaa !193
  %6 = tail call fastcc i32 @argf_next_argv(i64 noundef %0)
  %7 = load ptr, ptr %3, align 8, !tbaa !59
  %8 = getelementptr inbounds nuw i8, ptr %7, i64 8
  %9 = load i64, ptr %8, align 8, !tbaa !61
  %10 = load i64, ptr @rb_stdin, align 8, !tbaa !23
  %11 = icmp eq i64 %9, %10
  br i1 %11, label %12, label %26

12:                                               ; preds = %1
  %13 = icmp eq i64 %9, 0
  %14 = and i64 %9, 7
  %15 = icmp ne i64 %14, 0
  %16 = or i1 %13, %15
  br i1 %16, label %rbimpl_RB_TYPE_P_fastpath.exit.thread, label %rbimpl_RB_TYPE_P_fastpath.exit

rbimpl_RB_TYPE_P_fastpath.exit:                   ; preds = %12
  %17 = inttoptr i64 %9 to ptr
  %18 = load i64, ptr %17, align 8, !tbaa !25
  %19 = and i64 %18, 31
  %20 = icmp eq i64 %19, 11
  br i1 %20, label %26, label %rbimpl_RB_TYPE_P_fastpath.exit.thread

rbimpl_RB_TYPE_P_fastpath.exit.thread:            ; preds = %12, %rbimpl_RB_TYPE_P_fastpath.exit
  %21 = tail call i64 @rb_frame_this_func() #28
  %22 = tail call i32 @rb_keyword_given_p() #28
  %23 = icmp ne i32 %22, 0
  %24 = zext i1 %23 to i32
  %25 = tail call i64 @rb_funcallv_public_kw(i64 noundef %9, i64 noundef %21, i32 noundef 0, ptr noundef null, i32 noundef %24) #28
  br label %28

26:                                               ; preds = %1, %rbimpl_RB_TYPE_P_fastpath.exit
  %27 = tail call i64 @rb_io_ascii8bit_binmode(i64 noundef %9)
  br label %28

28:                                               ; preds = %26, %rbimpl_RB_TYPE_P_fastpath.exit.thread
  %.0 = phi i64 [ %0, %26 ], [ %25, %rbimpl_RB_TYPE_P_fastpath.exit.thread ]
  ret i64 %.0
}